target datalayout = "e-m:e-p270:32:32-p271:32:32-p272:64:64-i64:64-i128:128-f80:128-n8:16:32:64-S128"
target triple = "x86_64-unknown-linux-gnu"

%"class.v8::IndirectHandleBase" = type { ptr }
%"class.v8::Local.2" = type { %"class.v8::LocalBase.3" }
%"class.v8::LocalBase.3" = type { %"class.v8::IndirectHandleBase" }
%"class.v8::LocalBase.468" = type { %"class.v8::IndirectHandleBase" }
%"class.v8::Local.467" = type { %"class.v8::LocalBase.468" }
%"class.v8::FunctionCallbackInfo" = type <{ ptr, ptr, i32, [4 x i8] }>

; Function Attrs: mustprogress nounwind uwtable
define internal noundef zeroext i1 @_ZN4node4wasi12_GLOBAL__N_110CheckTypesIjJjEEEbRKN2v820FunctionCallbackInfoINS3_5ValueEEEiT_DpT0_(ptr noundef nonnull align 8 dereferenceable(20) %info, i32 noundef %i, i32 noundef %arg, i32 noundef %args) #4 {
entry:
  %retval = alloca i1, align 1
  %info.addr = alloca ptr, align 8
  %i.addr = alloca i32, align 4
  %arg.addr = alloca i32, align 4
  %args.addr = alloca i32, align 4
  store ptr %info, ptr %info.addr, align 8
  store i32 %i, ptr %i.addr, align 4
  store i32 %arg, ptr %arg.addr, align 4
  store i32 %args, ptr %args.addr, align 4
  %0 = load ptr, ptr %info.addr, align 8
  %1 = load i32, ptr %i.addr, align 4
  %2 = load i32, ptr %arg.addr, align 4
  %call = call noundef zeroext i1 @_ZN4node4wasi12_GLOBAL__N_110CheckTypesIjEEbRKN2v820FunctionCallbackInfoINS3_5ValueEEEiT_(ptr noundef nonnull align 8 dereferenceable(20) %0, i32 noundef %1, i32 noundef %2)
  br i1 %call, label %if.end, label %if.then

if.then:                                          ; preds = %entry
  store i1 false, ptr %retval, align 1
  br label %return

if.end:                                           ; preds = %entry
  %3 = load ptr, ptr %info.addr, align 8
  %4 = load i32, ptr %i.addr, align 4
  %add = add nsw i32 %4, 1
  %5 = load i32, ptr %args.addr, align 4
  %call1 = call noundef zeroext i1 @_ZN4node4wasi12_GLOBAL__N_110CheckTypesIjEEbRKN2v820FunctionCallbackInfoINS3_5ValueEEEiT_(ptr noundef nonnull align 8 dereferenceable(20) %3, i32 noundef %add, i32 noundef %5)
  store i1 %call1, ptr %retval, align 1
  br label %return

return:                                           ; preds = %if.end, %if.then
  %6 = load i1, ptr %retval, align 1
  ret i1 %6
}

; Function Attrs: mustprogress nounwind uwtable
define internal noundef zeroext i1 @_ZN4node4wasi12_GLOBAL__N_19CheckTypeIjEEbN2v85LocalINS3_5ValueEEE(ptr %value.coerce) #4 {
entry:
  %slot.addr.i = alloca ptr, align 8
  %this.addr.i.i = alloca ptr, align 8
  %this.addr.i4 = alloca ptr, align 8
  %this.addr.i = alloca ptr, align 8
  %value = alloca %"class.v8::Local.2", align 8
  %coerce.dive = getelementptr inbounds %"class.v8::Local.2", ptr %value, i32 0, i32 0
  %coerce.dive1 = getelementptr inbounds %"class.v8::LocalBase.3", ptr %coerce.dive, i32 0, i32 0
  %coerce.dive2 = getelementptr inbounds %"class.v8::IndirectHandleBase", ptr %coerce.dive1, i32 0, i32 0
  store ptr %value.coerce, ptr %coerce.dive2, align 8
  store ptr %value, ptr %this.addr.i, align 8
  %this1.i = load ptr, ptr %this.addr.i, align 8
  store ptr %this1.i, ptr %this.addr.i4, align 8
  %this1.i5 = load ptr, ptr %this.addr.i4, align 8
  store ptr %this1.i5, ptr %this.addr.i.i, align 8
  %this1.i.i = load ptr, ptr %this.addr.i.i, align 8
  %0 = load ptr, ptr %this1.i.i, align 8
  store ptr %0, ptr %slot.addr.i, align 8
  %1 = load ptr, ptr %slot.addr.i, align 8
  %call3 = call noundef zeroext i1 @_ZNK2v85Value8IsUint32Ev(ptr noundef nonnull align 1 dereferenceable(1) %1)
  ret i1 %call3
}

; Function Attrs: mustprogress nounwind uwtable
define internal noundef zeroext i1 @_ZN4node4wasi12_GLOBAL__N_110CheckTypesIjJjjEEEbRKN2v820FunctionCallbackInfoINS3_5ValueEEEiT_DpT0_(ptr noundef nonnull align 8 dereferenceable(20) %info, i32 noundef %i, i32 noundef %arg, i32 noundef %args, i32 noundef %args1) #4 {
entry:
  %retval = alloca i1, align 1
  %info.addr = alloca ptr, align 8
  %i.addr = alloca i32, align 4
  %arg.addr = alloca i32, align 4
  %args.addr = alloca i32, align 4
  %args.addr2 = alloca i32, align 4
  store ptr %info, ptr %info.addr, align 8
  store i32 %i, ptr %i.addr, align 4
  store i32 %arg, ptr %arg.addr, align 4
  store i32 %args, ptr %args.addr, align 4
  store i32 %args1, ptr %args.addr2, align 4
  %0 = load ptr, ptr %info.addr, align 8
  %1 = load i32, ptr %i.addr, align 4
  %2 = load i32, ptr %arg.addr, align 4
  %call = call noundef zeroext i1 @_ZN4node4wasi12_GLOBAL__N_110CheckTypesIjEEbRKN2v820FunctionCallbackInfoINS3_5ValueEEEiT_(ptr noundef nonnull align 8 dereferenceable(20) %0, i32 noundef %1, i32 noundef %2)
  br i1 %call, label %if.end, label %if.then

if.then:                                          ; preds = %entry
  store i1 false, ptr %retval, align 1
  br label %return

if.end:                                           ; preds = %entry
  %3 = load ptr, ptr %info.addr, align 8
  %4 = load i32, ptr %i.addr, align 4
  %add = add nsw i32 %4, 1
  %5 = load i32, ptr %args.addr, align 4
  %6 = load i32, ptr %args.addr2, align 4
  %call3 = call noundef zeroext i1 @_ZN4node4wasi12_GLOBAL__N_110CheckTypesIjJjEEEbRKN2v820FunctionCallbackInfoINS3_5ValueEEEiT_DpT0_(ptr noundef nonnull align 8 dereferenceable(20) %3, i32 noundef %add, i32 noundef %5, i32 noundef %6)
  store i1 %call3, ptr %retval, align 1
  br label %return

return:                                           ; preds = %if.end, %if.then
  %7 = load i1, ptr %retval, align 1
  ret i1 %7
}

; Function Attrs: mustprogress nounwind uwtable
define internal noundef zeroext i1 @_ZN4node4wasi12_GLOBAL__N_110CheckTypesIjEEbRKN2v820FunctionCallbackInfoINS3_5ValueEEEiT_(ptr noundef nonnull align 8 dereferenceable(20) %info, i32 noundef %i, i32 noundef %0) #4 {
entry:
  %this.addr.i.i31 = alloca ptr, align 8
  %location.addr.i.i32 = alloca ptr, align 8
  %this.addr.i33 = alloca ptr, align 8
  %location.addr.i34 = alloca ptr, align 8
  %this.addr.i28 = alloca ptr, align 8
  %other.addr.i29 = alloca ptr, align 8
  %retval.i26 = alloca %"class.v8::LocalBase.3", align 8
  %slot.addr.i27 = alloca ptr, align 8
  %this.addr.i23 = alloca ptr, align 8
  %other.addr.i24 = alloca ptr, align 8
  %this.addr.i.i = alloca ptr, align 8
  %location.addr.i.i = alloca ptr, align 8
  %this.addr.i21 = alloca ptr, align 8
  %location.addr.i = alloca ptr, align 8
  %this.addr.i19 = alloca ptr, align 8
  %other.addr.i = alloca ptr, align 8
  %retval.i17 = alloca %"class.v8::LocalBase.468", align 8
  %slot.addr.i18 = alloca ptr, align 8
  %retval.i13 = alloca %"class.v8::Local.467", align 8
  %slot.addr.i14 = alloca ptr, align 8
  %ref.tmp.i15 = alloca %"class.v8::LocalBase.468", align 8
  %isolate.addr.i12 = alloca ptr, align 8
  %retval.i11 = alloca %"class.v8::Local.2", align 8
  %slot.addr.i = alloca ptr, align 8
  %ref.tmp.i = alloca %"class.v8::LocalBase.3", align 8
  %that.i = alloca %"class.v8::Local.467", align 8
  %this.addr.i10 = alloca ptr, align 8
  %isolate.addr.i.i = alloca ptr, align 8
  %index.addr.i.i = alloca i32, align 4
  %addr.i.i = alloca i64, align 8
  %retval.i9 = alloca %"class.v8::Local.467", align 8
  %isolate.addr.i = alloca ptr, align 8
  %slot.i = alloca ptr, align 8
  %this.addr.i7 = alloca ptr, align 8
  %retval.i = alloca %"class.v8::Local.2", align 8
  %this.addr.i = alloca ptr, align 8
  %i.addr.i = alloca i32, align 4
  %agg.tmp.i = alloca %"class.v8::Local.467", align 8
  %info.addr = alloca ptr, align 8
  %i.addr = alloca i32, align 4
  %.addr = alloca i32, align 4
  %agg.tmp = alloca %"class.v8::Local.2", align 8
  store ptr %info, ptr %info.addr, align 8
  store i32 %i, ptr %i.addr, align 4
  store i32 %0, ptr %.addr, align 4
  %1 = load ptr, ptr %info.addr, align 8
  %2 = load i32, ptr %i.addr, align 4
  store ptr %1, ptr %this.addr.i, align 8
  store i32 %2, ptr %i.addr.i, align 4
  %this1.i = load ptr, ptr %this.addr.i, align 8
  %3 = load i32, ptr %i.addr.i, align 4
  %cmp.i = icmp slt i32 %3, 0
  br i1 %cmp.i, label %if.then.i, label %lor.lhs.false.i

lor.lhs.false.i:                                  ; preds = %entry
  %length_.i = getelementptr inbounds %"class.v8::FunctionCallbackInfo", ptr %this1.i, i32 0, i32 2
  %4 = load i32, ptr %length_.i, align 8
  %5 = load i32, ptr %i.addr.i, align 4
  %cmp2.i = icmp sle i32 %4, %5
  br i1 %cmp2.i, label %if.then.i, label %if.end.i

if.then.i:                                        ; preds = %lor.lhs.false.i, %entry
  store ptr %this1.i, ptr %this.addr.i7, align 8
  %this1.i8 = load ptr, ptr %this.addr.i7, align 8
  %6 = load ptr, ptr %this1.i8, align 8
  %arrayidx.i = getelementptr inbounds i64, ptr %6, i64 1
  %7 = load ptr, ptr %arrayidx.i, align 8
  store ptr %7, ptr %isolate.addr.i, align 8
  %8 = load ptr, ptr %isolate.addr.i, align 8
  store ptr %8, ptr %isolate.addr.i12, align 8
  %9 = load ptr, ptr %isolate.addr.i, align 8
  store ptr %9, ptr %isolate.addr.i.i, align 8
  store i32 4, ptr %index.addr.i.i, align 4
  %10 = load ptr, ptr %isolate.addr.i.i, align 8
  %11 = ptrtoint ptr %10 to i64
  %add.i.i = add i64 %11, 576
  %12 = load i32, ptr %index.addr.i.i, align 4
  %mul.i.i = mul nsw i32 %12, 8
  %conv.i.i = sext i32 %mul.i.i to i64
  %add1.i.i = add i64 %add.i.i, %conv.i.i
  store i64 %add1.i.i, ptr %addr.i.i, align 8
  %13 = load i64, ptr %addr.i.i, align 8
  %14 = inttoptr i64 %13 to ptr
  store ptr %14, ptr %slot.i, align 8
  %15 = load ptr, ptr %slot.i, align 8
  store ptr %15, ptr %slot.addr.i14, align 8
  %16 = load ptr, ptr %slot.addr.i14, align 8
  store ptr %16, ptr %slot.addr.i18, align 8
  %17 = load ptr, ptr %slot.addr.i18, align 8
  store ptr %retval.i17, ptr %this.addr.i21, align 8
  store ptr %17, ptr %location.addr.i, align 8
  %this1.i22 = load ptr, ptr %this.addr.i21, align 8
  %18 = load ptr, ptr %location.addr.i, align 8
  store ptr %this1.i22, ptr %this.addr.i.i, align 8
  store ptr %18, ptr %location.addr.i.i, align 8
  %this1.i.i = load ptr, ptr %this.addr.i.i, align 8
  %19 = load ptr, ptr %location.addr.i.i, align 8
  store ptr %19, ptr %this1.i.i, align 8
  %20 = load ptr, ptr %retval.i17, align 8
  store ptr %20, ptr %ref.tmp.i15, align 8
  store ptr %retval.i13, ptr %this.addr.i19, align 8
  store ptr %ref.tmp.i15, ptr %other.addr.i, align 8
  %this1.i20 = load ptr, ptr %this.addr.i19, align 8
  %21 = load ptr, ptr %other.addr.i, align 8
  call void @llvm.memcpy.p0.p0.i64(ptr align 8 %this1.i20, ptr align 8 %21, i64 8, i1 false)
  %22 = load ptr, ptr %retval.i13, align 8
  store ptr %22, ptr %retval.i9, align 8
  %23 = load ptr, ptr %retval.i9, align 8
  store ptr %23, ptr %agg.tmp.i, align 8
  %24 = load ptr, ptr %agg.tmp.i, align 8
  store ptr %24, ptr %that.i, align 8
  store ptr %retval.i, ptr %this.addr.i10, align 8
  %this3.i = load ptr, ptr %this.addr.i10, align 8
  store ptr %this3.i, ptr %this.addr.i23, align 8
  store ptr %that.i, ptr %other.addr.i24, align 8
  %this1.i25 = load ptr, ptr %this.addr.i23, align 8
  %25 = load ptr, ptr %other.addr.i24, align 8
  call void @llvm.memcpy.p0.p0.i64(ptr align 8 %this1.i25, ptr align 8 %25, i64 8, i1 false)
  br label %_ZNK2v820FunctionCallbackInfoINS_5ValueEEixEi.exit

if.end.i:                                         ; preds = %lor.lhs.false.i
  %values_.i = getelementptr inbounds %"class.v8::FunctionCallbackInfo", ptr %this1.i, i32 0, i32 1
  %26 = load ptr, ptr %values_.i, align 8
  %27 = load i32, ptr %i.addr.i, align 4
  %idx.ext.i = sext i32 %27 to i64
  %add.ptr.i = getelementptr inbounds i64, ptr %26, i64 %idx.ext.i
  store ptr %add.ptr.i, ptr %slot.addr.i, align 8
  %28 = load ptr, ptr %slot.addr.i, align 8
  store ptr %28, ptr %slot.addr.i27, align 8
  %29 = load ptr, ptr %slot.addr.i27, align 8
  store ptr %retval.i26, ptr %this.addr.i33, align 8
  store ptr %29, ptr %location.addr.i34, align 8
  %this1.i35 = load ptr, ptr %this.addr.i33, align 8
  %30 = load ptr, ptr %location.addr.i34, align 8
  store ptr %this1.i35, ptr %this.addr.i.i31, align 8
  store ptr %30, ptr %location.addr.i.i32, align 8
  %this1.i.i36 = load ptr, ptr %this.addr.i.i31, align 8
  %31 = load ptr, ptr %location.addr.i.i32, align 8
  store ptr %31, ptr %this1.i.i36, align 8
  %32 = load ptr, ptr %retval.i26, align 8
  store ptr %32, ptr %ref.tmp.i, align 8
  store ptr %retval.i11, ptr %this.addr.i28, align 8
  store ptr %ref.tmp.i, ptr %other.addr.i29, align 8
  %this1.i30 = load ptr, ptr %this.addr.i28, align 8
  %33 = load ptr, ptr %other.addr.i29, align 8
  call void @llvm.memcpy.p0.p0.i64(ptr align 8 %this1.i30, ptr align 8 %33, i64 8, i1 false)
  %34 = load ptr, ptr %retval.i11, align 8
  store ptr %34, ptr %retval.i, align 8
  br label %_ZNK2v820FunctionCallbackInfoINS_5ValueEEixEi.exit

_ZNK2v820FunctionCallbackInfoINS_5ValueEEixEi.exit: ; preds = %if.end.i, %if.then.i
  %35 = load ptr, ptr %retval.i, align 8
  %coerce.dive = getelementptr inbounds %"class.v8::Local.2", ptr %agg.tmp, i32 0, i32 0
  %coerce.dive1 = getelementptr inbounds %"class.v8::LocalBase.3", ptr %coerce.dive, i32 0, i32 0
  %coerce.dive2 = getelementptr inbounds %"class.v8::IndirectHandleBase", ptr %coerce.dive1, i32 0, i32 0
  store ptr %35, ptr %coerce.dive2, align 8
  %coerce.dive3 = getelementptr inbounds %"class.v8::Local.2", ptr %agg.tmp, i32 0, i32 0
  %coerce.dive4 = getelementptr inbounds %"class.v8::LocalBase.3", ptr %coerce.dive3, i32 0, i32 0
  %coerce.dive5 = getelementptr inbounds %"class.v8::IndirectHandleBase", ptr %coerce.dive4, i32 0, i32 0
  %36 = load ptr, ptr %coerce.dive5, align 8
  %call6 = call noundef zeroext i1 @_ZN4node4wasi12_GLOBAL__N_19CheckTypeIjEEbN2v85LocalINS3_5ValueEEE(ptr %36)
  ret i1 %call6
}

; Function Attrs: mustprogress nounwind uwtable
define internal noundef zeroext i1 @_ZN4node4wasi12_GLOBAL__N_110CheckTypesIjJjjjEEEbRKN2v820FunctionCallbackInfoINS3_5ValueEEEiT_DpT0_(ptr noundef nonnull align 8 dereferenceable(20) %info, i32 noundef %i, i32 noundef %arg, i32 noundef %args, i32 noundef %args1, i32 noundef %args3) #4 {
entry:
  %retval = alloca i1, align 1
  %info.addr = alloca ptr, align 8
  %i.addr = alloca i32, align 4
  %arg.addr = alloca i32, align 4
  %args.addr = alloca i32, align 4
  %args.addr2 = alloca i32, align 4
  %args.addr4 = alloca i32, align 4
  store ptr %info, ptr %info.addr, align 8
  store i32 %i, ptr %i.addr, align 4
  store i32 %arg, ptr %arg.addr, align 4
  store i32 %args, ptr %args.addr, align 4
  store i32 %args1, ptr %args.addr2, align 4
  store i32 %args3, ptr %args.addr4, align 4
  %0 = load ptr, ptr %info.addr, align 8
  %1 = load i32, ptr %i.addr, align 4
  %2 = load i32, ptr %arg.addr, align 4
  %call = call noundef zeroext i1 @_ZN4node4wasi12_GLOBAL__N_110CheckTypesIjEEbRKN2v820FunctionCallbackInfoINS3_5ValueEEEiT_(ptr noundef nonnull align 8 dereferenceable(20) %0, i32 noundef %1, i32 noundef %2)
  br i1 %call, label %if.end, label %if.then

if.then:                                          ; preds = %entry
  store i1 false, ptr %retval, align 1
  br label %return

if.end:                                           ; preds = %entry
  %3 = load ptr, ptr %info.addr, align 8
  %4 = load i32, ptr %i.addr, align 4
  %add = add nsw i32 %4, 1
  %5 = load i32, ptr %args.addr, align 4
  %6 = load i32, ptr %args.addr2, align 4
  %7 = load i32, ptr %args.addr4, align 4
  %call5 = call noundef zeroext i1 @_ZN4node4wasi12_GLOBAL__N_110CheckTypesIjJjjEEEbRKN2v820FunctionCallbackInfoINS3_5ValueEEEiT_DpT0_(ptr noundef nonnull align 8 dereferenceable(20) %3, i32 noundef %add, i32 noundef %5, i32 noundef %6, i32 noundef %7)
  store i1 %call5, ptr %retval, align 1
  br label %return

return:                                           ; preds = %if.end, %if.then
  %8 = load i1, ptr %retval, align 1
  ret i1 %8
}

; Function Attrs: mustprogress nounwind uwtable
define internal noundef zeroext i1 @_ZN4node4wasi12_GLOBAL__N_110CheckTypesIJjjjjEEEbRKN2v820FunctionCallbackInfoINS3_5ValueEEE(ptr noundef nonnull align 8 dereferenceable(20) %info) #4 {
entry:
  %info.addr = alloca ptr, align 8
  store ptr %info, ptr %info.addr, align 8
  %0 = load ptr, ptr %info.addr, align 8
  %call = call noundef zeroext i1 @_ZN4node4wasi12_GLOBAL__N_110CheckTypesIjJjjjEEEbRKN2v820FunctionCallbackInfoINS3_5ValueEEEiT_DpT0_(ptr noundef nonnull align 8 dereferenceable(20) %0, i32 noundef 0, i32 noundef 0, i32 noundef 0, i32 noundef 0, i32 noundef 0)
  ret i1 %call
}