; Function Attrs: mustprogress nounwind uwtable
define internal fastcc noundef zeroext i1 @_ZN4node4wasi12_GLOBAL__N_110CheckTypesIJjjjjEEEbRKN2v820FunctionCallbackInfoINS3_5ValueEEE(ptr nocapture noundef nonnull readonly align 8 dereferenceable(20) %info) unnamed_addr #3 {
entry:
  %length_.i.i.i = getelementptr inbounds i8, ptr %info, i64 16
  %0 = load i32, ptr %length_.i.i.i, align 8
  %cmp2.i.not.i.i = icmp sgt i32 %0, 0
  br i1 %cmp2.i.not.i.i, label %if.end.i.i.i, label %if.then.i.i.i

if.then.i.i.i:                                    ; preds = %entry
  %1 = load ptr, ptr %info, align 8
  %arrayidx.i.i.i = getelementptr inbounds i8, ptr %1, i64 8
  %2 = load ptr, ptr %arrayidx.i.i.i, align 8
  %3 = ptrtoint ptr %2 to i64
  %add1.i.i.i.i = add i64 %3, 608
  %4 = inttoptr i64 %add1.i.i.i.i to ptr
  br label %_ZN4node4wasi12_GLOBAL__N_110CheckTypesIjEEbRKN2v820FunctionCallbackInfoINS3_5ValueEEEiT_.exit.i

if.end.i.i.i:                                     ; preds = %entry
  %values_.i.i.i = getelementptr inbounds i8, ptr %info, i64 8
  %5 = load ptr, ptr %values_.i.i.i, align 8
  br label %_ZN4node4wasi12_GLOBAL__N_110CheckTypesIjEEbRKN2v820FunctionCallbackInfoINS3_5ValueEEEiT_.exit.i

_ZN4node4wasi12_GLOBAL__N_110CheckTypesIjEEbRKN2v820FunctionCallbackInfoINS3_5ValueEEEiT_.exit.i: ; preds = %if.end.i.i.i, %if.then.i.i.i
  %retval.i.sroa.0.0.i.i = phi ptr [ %4, %if.then.i.i.i ], [ %5, %if.end.i.i.i ]
  %call3.i.i.i = tail call noundef zeroext i1 @_ZNK2v85Value8IsUint32Ev(ptr noundef nonnull align 1 dereferenceable(1) %retval.i.sroa.0.0.i.i) #24
  br i1 %call3.i.i.i, label %if.end.i, label %_ZN4node4wasi12_GLOBAL__N_110CheckTypesIjJjjjEEEbRKN2v820FunctionCallbackInfoINS3_5ValueEEEiT_DpT0_.exit

if.end.i:                                         ; preds = %_ZN4node4wasi12_GLOBAL__N_110CheckTypesIjEEbRKN2v820FunctionCallbackInfoINS3_5ValueEEEiT_.exit.i
  %6 = load i32, ptr %length_.i.i.i, align 8
  %cmp2.i.not.i.i.i = icmp sgt i32 %6, 1
  br i1 %cmp2.i.not.i.i.i, label %if.end.i.i.i.i, label %if.then.i.i.i.i

if.then.i.i.i.i:                                  ; preds = %if.end.i
  %7 = load ptr, ptr %info, align 8
  %arrayidx.i.i.i.i = getelementptr inbounds i8, ptr %7, i64 8
  %8 = load ptr, ptr %arrayidx.i.i.i.i, align 8
  %9 = ptrtoint ptr %8 to i64
  %add1.i.i.i.i.i = add i64 %9, 608
  %10 = inttoptr i64 %add1.i.i.i.i.i to ptr
  br label %_ZN4node4wasi12_GLOBAL__N_110CheckTypesIjEEbRKN2v820FunctionCallbackInfoINS3_5ValueEEEiT_.exit.i.i

if.end.i.i.i.i:                                   ; preds = %if.end.i
  %values_.i.i.i.i = getelementptr inbounds i8, ptr %info, i64 8
  %11 = load ptr, ptr %values_.i.i.i.i, align 8
  %add.ptr.i.i.i.i = getelementptr inbounds i8, ptr %11, i64 8
  br label %_ZN4node4wasi12_GLOBAL__N_110CheckTypesIjEEbRKN2v820FunctionCallbackInfoINS3_5ValueEEEiT_.exit.i.i

_ZN4node4wasi12_GLOBAL__N_110CheckTypesIjEEbRKN2v820FunctionCallbackInfoINS3_5ValueEEEiT_.exit.i.i: ; preds = %if.end.i.i.i.i, %if.then.i.i.i.i
  %retval.i.sroa.0.0.i.i.i = phi ptr [ %10, %if.then.i.i.i.i ], [ %add.ptr.i.i.i.i, %if.end.i.i.i.i ]
  %call3.i.i.i.i = tail call noundef zeroext i1 @_ZNK2v85Value8IsUint32Ev(ptr noundef nonnull align 1 dereferenceable(1) %retval.i.sroa.0.0.i.i.i) #24
  br i1 %call3.i.i.i.i, label %if.end.i.i, label %_ZN4node4wasi12_GLOBAL__N_110CheckTypesIjJjjjEEEbRKN2v820FunctionCallbackInfoINS3_5ValueEEEiT_DpT0_.exit

if.end.i.i:                                       ; preds = %_ZN4node4wasi12_GLOBAL__N_110CheckTypesIjEEbRKN2v820FunctionCallbackInfoINS3_5ValueEEEiT_.exit.i.i
  %12 = load i32, ptr %length_.i.i.i, align 8
  %cmp2.i.not.i.i.i.i = icmp sgt i32 %12, 2
  br i1 %cmp2.i.not.i.i.i.i, label %if.end.i.i.i.i.i, label %if.then.i.i.i.i.i

if.then.i.i.i.i.i:                                ; preds = %if.end.i.i
  %13 = load ptr, ptr %info, align 8
  %arrayidx.i.i.i.i.i = getelementptr inbounds i8, ptr %13, i64 8
  %14 = load ptr, ptr %arrayidx.i.i.i.i.i, align 8
  %15 = ptrtoint ptr %14 to i64
  %add1.i.i.i.i.i.i = add i64 %15, 608
  %16 = inttoptr i64 %add1.i.i.i.i.i.i to ptr
  br label %_ZN4node4wasi12_GLOBAL__N_110CheckTypesIjEEbRKN2v820FunctionCallbackInfoINS3_5ValueEEEiT_.exit.i.i.i

if.end.i.i.i.i.i:                                 ; preds = %if.end.i.i
  %values_.i.i.i.i.i = getelementptr inbounds i8, ptr %info, i64 8
  %17 = load ptr, ptr %values_.i.i.i.i.i, align 8
  %add.ptr.i.i.i.i.i = getelementptr inbounds i8, ptr %17, i64 16
  br label %_ZN4node4wasi12_GLOBAL__N_110CheckTypesIjEEbRKN2v820FunctionCallbackInfoINS3_5ValueEEEiT_.exit.i.i.i

_ZN4node4wasi12_GLOBAL__N_110CheckTypesIjEEbRKN2v820FunctionCallbackInfoINS3_5ValueEEEiT_.exit.i.i.i: ; preds = %if.end.i.i.i.i.i, %if.then.i.i.i.i.i
  %retval.i.sroa.0.0.i.i.i.i = phi ptr [ %16, %if.then.i.i.i.i.i ], [ %add.ptr.i.i.i.i.i, %if.end.i.i.i.i.i ]
  %call3.i.i.i.i.i = tail call noundef zeroext i1 @_ZNK2v85Value8IsUint32Ev(ptr noundef nonnull align 1 dereferenceable(1) %retval.i.sroa.0.0.i.i.i.i) #24
  br i1 %call3.i.i.i.i.i, label %if.end.i.i3.i, label %_ZN4node4wasi12_GLOBAL__N_110CheckTypesIjJjjjEEEbRKN2v820FunctionCallbackInfoINS3_5ValueEEEiT_DpT0_.exit

if.end.i.i3.i:                                    ; preds = %_ZN4node4wasi12_GLOBAL__N_110CheckTypesIjEEbRKN2v820FunctionCallbackInfoINS3_5ValueEEEiT_.exit.i.i.i
  %18 = load i32, ptr %length_.i.i.i, align 8
  %cmp2.i.not.i4.i.i.i = icmp sgt i32 %18, 3
  br i1 %cmp2.i.not.i4.i.i.i, label %if.end.i.i10.i.i.i, label %if.then.i.i5.i.i.i

if.then.i.i5.i.i.i:                               ; preds = %if.end.i.i3.i
  %19 = load ptr, ptr %info, align 8
  %arrayidx.i.i6.i.i.i = getelementptr inbounds i8, ptr %19, i64 8
  %20 = load ptr, ptr %arrayidx.i.i6.i.i.i, align 8
  %21 = ptrtoint ptr %20 to i64
  %add1.i.i.i7.i.i.i = add i64 %21, 608
  %22 = inttoptr i64 %add1.i.i.i7.i.i.i to ptr
  br label %_ZN4node4wasi12_GLOBAL__N_110CheckTypesIjEEbRKN2v820FunctionCallbackInfoINS3_5ValueEEEiT_.exit14.i.i.i

if.end.i.i10.i.i.i:                               ; preds = %if.end.i.i3.i
  %values_.i.i11.i.i.i = getelementptr inbounds i8, ptr %info, i64 8
  %23 = load ptr, ptr %values_.i.i11.i.i.i, align 8
  %add.ptr.i.i13.i.i.i = getelementptr inbounds i8, ptr %23, i64 24
  br label %_ZN4node4wasi12_GLOBAL__N_110CheckTypesIjEEbRKN2v820FunctionCallbackInfoINS3_5ValueEEEiT_.exit14.i.i.i

_ZN4node4wasi12_GLOBAL__N_110CheckTypesIjEEbRKN2v820FunctionCallbackInfoINS3_5ValueEEEiT_.exit14.i.i.i: ; preds = %if.end.i.i10.i.i.i, %if.then.i.i5.i.i.i
  %retval.i.sroa.0.0.i8.i.i.i = phi ptr [ %22, %if.then.i.i5.i.i.i ], [ %add.ptr.i.i13.i.i.i, %if.end.i.i10.i.i.i ]
  %call3.i.i9.i.i.i = tail call noundef zeroext i1 @_ZNK2v85Value8IsUint32Ev(ptr noundef nonnull align 1 dereferenceable(1) %retval.i.sroa.0.0.i8.i.i.i) #24
  br label %_ZN4node4wasi12_GLOBAL__N_110CheckTypesIjJjjjEEEbRKN2v820FunctionCallbackInfoINS3_5ValueEEEiT_DpT0_.exit

_ZN4node4wasi12_GLOBAL__N_110CheckTypesIjJjjjEEEbRKN2v820FunctionCallbackInfoINS3_5ValueEEEiT_DpT0_.exit: ; preds = %_ZN4node4wasi12_GLOBAL__N_110CheckTypesIjEEbRKN2v820FunctionCallbackInfoINS3_5ValueEEEiT_.exit.i, %_ZN4node4wasi12_GLOBAL__N_110CheckTypesIjEEbRKN2v820FunctionCallbackInfoINS3_5ValueEEEiT_.exit.i.i, %_ZN4node4wasi12_GLOBAL__N_110CheckTypesIjEEbRKN2v820FunctionCallbackInfoINS3_5ValueEEEiT_.exit.i.i.i, %_ZN4node4wasi12_GLOBAL__N_110CheckTypesIjEEbRKN2v820FunctionCallbackInfoINS3_5ValueEEEiT_.exit14.i.i.i
  %retval.0.i = phi i1 [ false, %_ZN4node4wasi12_GLOBAL__N_110CheckTypesIjEEbRKN2v820FunctionCallbackInfoINS3_5ValueEEEiT_.exit.i ], [ false, %_ZN4node4wasi12_GLOBAL__N_110CheckTypesIjEEbRKN2v820FunctionCallbackInfoINS3_5ValueEEEiT_.exit.i.i ], [ %call3.i.i9.i.i.i, %_ZN4node4wasi12_GLOBAL__N_110CheckTypesIjEEbRKN2v820FunctionCallbackInfoINS3_5ValueEEEiT_.exit14.i.i.i ], [ false, %_ZN4node4wasi12_GLOBAL__N_110CheckTypesIjEEbRKN2v820FunctionCallbackInfoINS3_5ValueEEEiT_.exit.i.i.i ]
  ret i1 %retval.0.i
}